target datalayout = "e-m:e-p270:32:32-p271:32:32-p272:64:64-i64:64-i128:128-f80:128-n8:16:32:64-S128"
target triple = "x86_64-pc-linux-gnu"

%struct.Gia_Man_t_ = type { ptr, ptr, i32, i32, i32, i32, ptr, ptr, i32, i32, i32, ptr, ptr, %struct.Vec_Int_t_, %struct.Vec_Int_t_, i32, i32, i32, %struct.Vec_Int_t_, ptr, ptr, ptr, i32, i32, i32, i32, ptr, ptr, ptr, ptr, ptr, i32, i32, ptr, i32, ptr, ptr, ptr, ptr, ptr, ptr, ptr, ptr, ptr, ptr, ptr, ptr, ptr, ptr, ptr, ptr, ptr, ptr, %struct.Vec_Int_t_, %struct.Vec_Int_t_, ptr, ptr, ptr, ptr, ptr, ptr, ptr, ptr, ptr, ptr, ptr, ptr, ptr, ptr, ptr, ptr, ptr, ptr, ptr, ptr, ptr, i32, float, float, ptr, ptr, i32, ptr, ptr, ptr, ptr, ptr, ptr, ptr, ptr, ptr, ptr, ptr, ptr, ptr, ptr, ptr, i64, i64, ptr, ptr, i32, i32, i32, i32, i32, i32, i32, i32, i32, i32, i32, i32, ptr, ptr, ptr, ptr, ptr, ptr, ptr, ptr, i32, i32, i32, ptr, i32, i32, ptr, ptr, ptr, ptr, ptr, ptr, i32, i32, ptr, %struct.Vec_Int_t_, %struct.Vec_Int_t_, %struct.Vec_Int_t_, ptr, ptr, ptr, i32, i32, i32, i32, ptr, ptr, ptr, ptr, ptr }
%struct.Vec_Int_t_ = type { i32, i32, ptr }

@.str.47 = private unnamed_addr constant [30 x i8] c"Arrival times are not given.\0A\00", align 1
@.str.48 = private unnamed_addr constant [58 x i8] c"ABC framework is not initialized by calling Abc_Start().\0A\00", align 1
@.str.49 = private unnamed_addr constant [50 x i8] c"Current network in ABC framework is not defined.\0A\00", align 1

; Function Attrs: inlinehint nounwind uwtable
define internal i32 @Vec_IntSize(ptr noundef %0) #3 {
  %2 = alloca ptr, align 8
  store ptr %0, ptr %2, align 8, !tbaa !74
  %3 = load ptr, ptr %2, align 8, !tbaa !74
  %4 = getelementptr inbounds nuw %struct.Vec_Int_t_, ptr %3, i32 0, i32 1
  %5 = load i32, ptr %4, align 4, !tbaa !75
  ret i32 %5
}

; Function Attrs: inlinehint nounwind uwtable
define internal ptr @Vec_IntAllocArrayCopy(ptr noundef %0, i32 noundef %1) #3 {
  %3 = alloca ptr, align 8
  %4 = alloca i32, align 4
  %5 = alloca ptr, align 8
  store ptr %0, ptr %3, align 8, !tbaa !68
  store i32 %1, ptr %4, align 4, !tbaa !42
  call void @llvm.lifetime.start.p0(i64 8, ptr %5) #14
  %6 = call noalias ptr @malloc(i64 noundef 16) #16
  store ptr %6, ptr %5, align 8, !tbaa !74
  %7 = load i32, ptr %4, align 4, !tbaa !42
  %8 = load ptr, ptr %5, align 8, !tbaa !74
  %9 = getelementptr inbounds nuw %struct.Vec_Int_t_, ptr %8, i32 0, i32 1
  store i32 %7, ptr %9, align 4, !tbaa !75
  %10 = load i32, ptr %4, align 4, !tbaa !42
  %11 = load ptr, ptr %5, align 8, !tbaa !74
  %12 = getelementptr inbounds nuw %struct.Vec_Int_t_, ptr %11, i32 0, i32 0
  store i32 %10, ptr %12, align 8, !tbaa !93
  %13 = load i32, ptr %4, align 4, !tbaa !42
  %14 = sext i32 %13 to i64
  %15 = mul i64 4, %14
  %16 = call noalias ptr @malloc(i64 noundef %15) #16
  %17 = load ptr, ptr %5, align 8, !tbaa !74
  %18 = getelementptr inbounds nuw %struct.Vec_Int_t_, ptr %17, i32 0, i32 2
  store ptr %16, ptr %18, align 8, !tbaa !94
  %19 = load ptr, ptr %5, align 8, !tbaa !74
  %20 = getelementptr inbounds nuw %struct.Vec_Int_t_, ptr %19, i32 0, i32 2
  %21 = load ptr, ptr %20, align 8, !tbaa !94
  %22 = load ptr, ptr %3, align 8, !tbaa !68
  %23 = load i32, ptr %4, align 4, !tbaa !42
  %24 = sext i32 %23 to i64
  %25 = mul i64 4, %24
  call void @llvm.memcpy.p0.p0.i64(ptr align 4 %21, ptr align 4 %22, i64 %25, i1 false)
  %26 = load ptr, ptr %5, align 8, !tbaa !74
  call void @llvm.lifetime.end.p0(i64 8, ptr %5) #14
  ret ptr %26
}

; Function Attrs: inlinehint nounwind uwtable
define internal i32 @Gia_ManCiNum(ptr noundef %0) #3 {
  %2 = alloca ptr, align 8
  store ptr %0, ptr %2, align 8, !tbaa !40
  %3 = load ptr, ptr %2, align 8, !tbaa !40
  %4 = getelementptr inbounds nuw %struct.Gia_Man_t_, ptr %3, i32 0, i32 11
  %5 = load ptr, ptr %4, align 8, !tbaa !99
  %6 = call i32 @Vec_IntSize(ptr noundef %5)
  ret i32 %6
}

; Function Attrs: inlinehint nounwind uwtable
define internal void @Vec_IntFreeP(ptr noundef %0) #3 {
  %2 = alloca ptr, align 8
  store ptr %0, ptr %2, align 8, !tbaa !297
  %3 = load ptr, ptr %2, align 8, !tbaa !297
  %4 = load ptr, ptr %3, align 8, !tbaa !74
  %5 = icmp eq ptr %4, null
  br i1 %5, label %6, label %7

6:                                                ; preds = %1
  br label %32

7:                                                ; preds = %1
  %8 = load ptr, ptr %2, align 8, !tbaa !297
  %9 = load ptr, ptr %8, align 8, !tbaa !74
  %10 = getelementptr inbounds nuw %struct.Vec_Int_t_, ptr %9, i32 0, i32 2
  %11 = load ptr, ptr %10, align 8, !tbaa !94
  %12 = icmp ne ptr %11, null
  br i1 %12, label %13, label %21

13:                                               ; preds = %7
  %14 = load ptr, ptr %2, align 8, !tbaa !297
  %15 = load ptr, ptr %14, align 8, !tbaa !74
  %16 = getelementptr inbounds nuw %struct.Vec_Int_t_, ptr %15, i32 0, i32 2
  %17 = load ptr, ptr %16, align 8, !tbaa !94
  call void @free(ptr noundef %17) #14
  %18 = load ptr, ptr %2, align 8, !tbaa !297
  %19 = load ptr, ptr %18, align 8, !tbaa !74
  %20 = getelementptr inbounds nuw %struct.Vec_Int_t_, ptr %19, i32 0, i32 2
  store ptr null, ptr %20, align 8, !tbaa !94
  br label %22

21:                                               ; preds = %7
  br label %22

22:                                               ; preds = %21, %13
  %23 = load ptr, ptr %2, align 8, !tbaa !297
  %24 = load ptr, ptr %23, align 8, !tbaa !74
  %25 = icmp ne ptr %24, null
  br i1 %25, label %26, label %30

26:                                               ; preds = %22
  %27 = load ptr, ptr %2, align 8, !tbaa !297
  %28 = load ptr, ptr %27, align 8, !tbaa !74
  call void @free(ptr noundef %28) #14
  %29 = load ptr, ptr %2, align 8, !tbaa !297
  store ptr null, ptr %29, align 8, !tbaa !74
  br label %31

30:                                               ; preds = %22
  br label %31

31:                                               ; preds = %30, %26
  br label %32

32:                                               ; preds = %31, %6
  ret void
}

; Function Attrs: nounwind uwtable
define void @Abc_FrameMiniAigSetCiArrivals(ptr noundef %0, ptr noundef %1) #0 {
  %3 = alloca ptr, align 8
  %4 = alloca ptr, align 8
  %5 = alloca ptr, align 8
  %6 = alloca i32, align 4
  store ptr %0, ptr %3, align 8, !tbaa !318
  store ptr %1, ptr %4, align 8, !tbaa !68
  call void @llvm.lifetime.start.p0(i64 8, ptr %5) #14
  %7 = load ptr, ptr %4, align 8, !tbaa !68
  %8 = icmp eq ptr %7, null
  br i1 %8, label %9, label %11

9:                                                ; preds = %2
  %10 = call i32 (ptr, ...) @printf(ptr noundef @.str.47)
  store i32 1, ptr %6, align 4
  br label %32

11:                                               ; preds = %2
  %12 = load ptr, ptr %3, align 8, !tbaa !318
  %13 = icmp eq ptr %12, null
  br i1 %13, label %14, label %16

14:                                               ; preds = %11
  %15 = call i32 (ptr, ...) @printf(ptr noundef @.str.48)
  store i32 1, ptr %6, align 4
  br label %32

16:                                               ; preds = %11
  %17 = load ptr, ptr %3, align 8, !tbaa !318
  %18 = call ptr @Abc_FrameReadGia(ptr noundef %17)
  store ptr %18, ptr %5, align 8, !tbaa !40
  %19 = load ptr, ptr %5, align 8, !tbaa !40
  %20 = icmp eq ptr %19, null
  br i1 %20, label %21, label %23

21:                                               ; preds = %16
  %22 = call i32 (ptr, ...) @printf(ptr noundef @.str.49)
  store i32 1, ptr %6, align 4
  br label %32

23:                                               ; preds = %16
  %24 = load ptr, ptr %5, align 8, !tbaa !40
  %25 = getelementptr inbounds nuw %struct.Gia_Man_t_, ptr %24, i32 0, i32 71
  call void @Vec_IntFreeP(ptr noundef %25)
  %26 = load ptr, ptr %4, align 8, !tbaa !68
  %27 = load ptr, ptr %5, align 8, !tbaa !40
  %28 = call i32 @Gia_ManCiNum(ptr noundef %27)
  %29 = call ptr @Vec_IntAllocArrayCopy(ptr noundef %26, i32 noundef %28)
  %30 = load ptr, ptr %5, align 8, !tbaa !40
  %31 = getelementptr inbounds nuw %struct.Gia_Man_t_, ptr %30, i32 0, i32 71
  store ptr %29, ptr %31, align 8, !tbaa !302
  store i32 0, ptr %6, align 4
  br label %32

32:                                               ; preds = %23, %21, %14, %9
  call void @llvm.lifetime.end.p0(i64 8, ptr %5) #14
  %33 = load i32, ptr %6, align 4
  switch i32 %33, label %35 [
    i32 0, label %34
    i32 1, label %34
  ]

34:                                               ; preds = %32, %32
  ret void

35:                                               ; preds = %32
  unreachable
}