; Function Attrs: nounwind uwtable
define void @Abc_FrameMiniAigSetCiArrivals(ptr noundef %0, ptr noundef readonly %1) local_unnamed_addr #4 {
  %3 = icmp eq ptr %1, null
  br i1 %3, label %4, label %5

4:                                                ; preds = %2
  %puts11 = tail call i32 @puts(ptr nonnull dereferenceable(1) @str.5)
  br label %31

5:                                                ; preds = %2
  %6 = icmp eq ptr %0, null
  br i1 %6, label %7, label %8

7:                                                ; preds = %5
  %puts10 = tail call i32 @puts(ptr nonnull dereferenceable(1) @str.7)
  br label %31

8:                                                ; preds = %5
  %9 = tail call ptr @Abc_FrameReadGia(ptr noundef nonnull %0) #27
  %10 = icmp eq ptr %9, null
  br i1 %10, label %11, label %12

11:                                               ; preds = %8
  %puts = tail call i32 @puts(ptr nonnull dereferenceable(1) @str.13)
  br label %31

12:                                               ; preds = %8
  %13 = getelementptr inbounds nuw i8, ptr %9, i64 552
  %14 = load ptr, ptr %13, align 8, !tbaa !206
  %15 = icmp eq ptr %14, null
  br i1 %15, label %Vec_IntFreeP.exit, label %16

16:                                               ; preds = %12
  %17 = getelementptr inbounds nuw i8, ptr %14, i64 8
  %18 = load ptr, ptr %17, align 8, !tbaa !47
  %.not.i = icmp eq ptr %18, null
  br i1 %.not.i, label %21, label %.thread.i

.thread.i:                                        ; preds = %16
  tail call void @free(ptr noundef nonnull %18) #27
  %19 = load ptr, ptr %13, align 8, !tbaa !206
  %20 = getelementptr inbounds nuw i8, ptr %19, i64 8
  store ptr null, ptr %20, align 8, !tbaa !47
  br label %21

21:                                               ; preds = %.thread.i, %16
  %22 = phi ptr [ %19, %.thread.i ], [ %14, %16 ]
  tail call void @free(ptr noundef nonnull %22) #27
  store ptr null, ptr %13, align 8, !tbaa !206
  br label %Vec_IntFreeP.exit

Vec_IntFreeP.exit:                                ; preds = %12, %21
  %23 = getelementptr i8, ptr %9, i64 64
  %.val = load ptr, ptr %23, align 8, !tbaa !80
  %24 = getelementptr i8, ptr %.val, i64 4
  %.val.val = load i32, ptr %24, align 4, !tbaa !54
  %25 = tail call noalias dereferenceable_or_null(16) ptr @malloc(i64 noundef 16) #29
  %26 = getelementptr inbounds nuw i8, ptr %25, i64 4
  store i32 %.val.val, ptr %26, align 4, !tbaa !54
  store i32 %.val.val, ptr %25, align 8, !tbaa !76
  %27 = sext i32 %.val.val to i64
  %28 = shl nsw i64 %27, 2
  %29 = tail call noalias ptr @malloc(i64 noundef %28) #29
  %30 = getelementptr inbounds nuw i8, ptr %25, i64 8
  store ptr %29, ptr %30, align 8, !tbaa !47
  tail call void @llvm.memcpy.p0.p0.i64(ptr align 4 %29, ptr nonnull readonly align 4 %1, i64 %28, i1 false)
  store ptr %25, ptr %13, align 8, !tbaa !286
  br label %31

31:                                               ; preds = %Vec_IntFreeP.exit, %11, %7, %4
  ret void
}